; ModuleID = 'source-C-CXX/3/768.cpp'
source_filename = "source-C-CXX/3/768.cpp"
target datalayout = "e-m:e-p270:32:32-p271:32:32-p272:64:64-i64:64-f80:128-n8:16:32:64-S128"
target triple = "x86_64-pc-linux-gnu"

%"class.std::ios_base::Init" = type { i8 }
%"class.std::basic_ostream" = type { i32 (...)**, %"class.std::basic_ios" }
%"class.std::basic_ios" = type { %"class.std::ios_base", %"class.std::basic_ostream"*, i8, i8, %"class.std::basic_streambuf"*, %"class.std::ctype"*, %"class.std::num_put"*, %"class.std::num_get"* }
%"class.std::ios_base" = type { i32 (...)**, i64, i64, i32, i32, i32, %"struct.std::ios_base::_Callback_list"*, %"struct.std::ios_base::_Words", [8 x %"struct.std::ios_base::_Words"], i32, %"struct.std::ios_base::_Words"*, %"class.std::locale" }
%"struct.std::ios_base::_Callback_list" = type { %"struct.std::ios_base::_Callback_list"*, void (i32, %"class.std::ios_base"*, i32)*, i32, i32 }
%"struct.std::ios_base::_Words" = type { i8*, i64 }
%"class.std::locale" = type { %"class.std::locale::_Impl"* }
%"class.std::locale::_Impl" = type { i32, %"class.std::locale::facet"**, i64, %"class.std::locale::facet"**, i8** }
%"class.std::locale::facet" = type <{ i32 (...)**, i32, [4 x i8] }>
%"class.std::basic_streambuf" = type { i32 (...)**, i8*, i8*, i8*, i8*, i8*, i8*, %"class.std::locale" }
%"class.std::ctype" = type <{ %"class.std::locale::facet.base", [4 x i8], %struct.__locale_struct*, i8, [7 x i8], i32*, i32*, i16*, i8, [256 x i8], [256 x i8], i8, [6 x i8] }>
%"class.std::locale::facet.base" = type <{ i32 (...)**, i32 }>
%struct.__locale_struct = type { [13 x %struct.__locale_data*], i16*, i32*, i32*, [13 x i8*] }
%struct.__locale_data = type opaque
%"class.std::num_put" = type { %"class.std::locale::facet.base", [4 x i8] }
%"class.std::num_get" = type { %"class.std::locale::facet.base", [4 x i8] }
%"class.std::basic_istream" = type { i32 (...)**, i64, %"class.std::basic_ios" }

@_ZStL8__ioinit = internal global %"class.std::ios_base::Init" zeroinitializer, align 1
@__dso_handle = external hidden global i8
@a = dso_local global [100 x [100 x i32]] zeroinitializer, align 16
@n = dso_local global i32 0, align 4
@m = dso_local global i32 0, align 4
@i = dso_local local_unnamed_addr global i32 0, align 4
@j = dso_local local_unnamed_addr global i32 0, align 4
@_ZSt4cout = external global %"class.std::basic_ostream", align 8
@_ZSt3cin = external global %"class.std::basic_istream", align 8
@llvm.global_ctors = appending global [1 x { i32, void ()*, i8* }] [{ i32, void ()*, i8* } { i32 65535, void ()* @_GLOBAL__sub_I_768.cpp, i8* null }]

declare void @_ZNSt8ios_base4InitC1Ev(%"class.std::ios_base::Init"* nonnull align 1 dereferenceable(1)) unnamed_addr #0

; Function Attrs: nounwind
declare void @_ZNSt8ios_base4InitD1Ev(%"class.std::ios_base::Init"* nonnull align 1 dereferenceable(1)) unnamed_addr #1

; Function Attrs: nofree nounwind
declare i32 @__cxa_atexit(void (i8*)*, i8*, i8*) local_unnamed_addr #2

; Function Attrs: mustprogress sspstrong uwtable
define dso_local void @_Z6bianliii(i32 %0, i32 %1) local_unnamed_addr #3 {
  %3 = icmp eq i32 %1, 0
  br i1 %3, label %15, label %4

4:                                                ; preds = %2
  %5 = sext i32 %1 to i64
  %6 = sext i32 %0 to i64
  %7 = add i32 %1, %0
  br label %8

8:                                                ; preds = %4, %82
  %9 = phi i64 [ %6, %4 ], [ %86, %82 ]
  %10 = phi i64 [ %5, %4 ], [ %87, %82 ]
  %11 = load i32, i32* @n, align 4, !tbaa !5
  %12 = add nsw i32 %11, -1
  %13 = trunc i64 %9 to i32
  %14 = icmp eq i32 %12, %13
  br i1 %14, label %15, label %53

15:                                               ; preds = %82, %8, %2
  %16 = phi i32 [ %0, %2 ], [ %12, %8 ], [ %7, %82 ]
  %17 = phi i64 [ 0, %2 ], [ %10, %8 ], [ 0, %82 ]
  %18 = sext i32 %16 to i64
  %19 = shl i64 %17, 32
  %20 = ashr exact i64 %19, 32
  %21 = getelementptr inbounds [100 x [100 x i32]], [100 x [100 x i32]]* @a, i64 0, i64 %18, i64 %20
  %22 = load i32, i32* %21, align 4, !tbaa !5
  %23 = tail call nonnull align 8 dereferenceable(8) %"class.std::basic_ostream"* @_ZNSolsEi(%"class.std::basic_ostream"* nonnull align 8 dereferenceable(8) @_ZSt4cout, i32 %22)
  %24 = bitcast %"class.std::basic_ostream"* %23 to i8**
  %25 = load i8*, i8** %24, align 8, !tbaa !9
  %26 = getelementptr i8, i8* %25, i64 -24
  %27 = bitcast i8* %26 to i64*
  %28 = load i64, i64* %27, align 8
  %29 = bitcast %"class.std::basic_ostream"* %23 to i8*
  %30 = add nsw i64 %28, 240
  %31 = getelementptr inbounds i8, i8* %29, i64 %30
  %32 = bitcast i8* %31 to %"class.std::ctype"**
  %33 = load %"class.std::ctype"*, %"class.std::ctype"** %32, align 8, !tbaa !11
  %34 = icmp eq %"class.std::ctype"* %33, null
  br i1 %34, label %35, label %36

35:                                               ; preds = %15
  tail call void @_ZSt16__throw_bad_castv() #7
  unreachable

36:                                               ; preds = %15
  %37 = getelementptr inbounds %"class.std::ctype", %"class.std::ctype"* %33, i64 0, i32 8
  %38 = load i8, i8* %37, align 8, !tbaa !15
  %39 = icmp eq i8 %38, 0
  br i1 %39, label %43, label %40

40:                                               ; preds = %36
  %41 = getelementptr inbounds %"class.std::ctype", %"class.std::ctype"* %33, i64 0, i32 9, i64 10
  %42 = load i8, i8* %41, align 1, !tbaa !17
  br label %49

43:                                               ; preds = %36
  tail call void @_ZNKSt5ctypeIcE13_M_widen_initEv(%"class.std::ctype"* nonnull align 8 dereferenceable(570) %33)
  %44 = bitcast %"class.std::ctype"* %33 to i8 (%"class.std::ctype"*, i8)***
  %45 = load i8 (%"class.std::ctype"*, i8)**, i8 (%"class.std::ctype"*, i8)*** %44, align 8, !tbaa !9
  %46 = getelementptr inbounds i8 (%"class.std::ctype"*, i8)*, i8 (%"class.std::ctype"*, i8)** %45, i64 6
  %47 = load i8 (%"class.std::ctype"*, i8)*, i8 (%"class.std::ctype"*, i8)** %46, align 8
  %48 = tail call signext i8 %47(%"class.std::ctype"* nonnull align 8 dereferenceable(570) %33, i8 signext 10)
  br label %49

49:                                               ; preds = %40, %43
  %50 = phi i8 [ %42, %40 ], [ %48, %43 ]
  %51 = tail call nonnull align 8 dereferenceable(8) %"class.std::basic_ostream"* @_ZNSo3putEc(%"class.std::basic_ostream"* nonnull align 8 dereferenceable(8) %23, i8 signext %50)
  %52 = tail call nonnull align 8 dereferenceable(8) %"class.std::basic_ostream"* @_ZNSo5flushEv(%"class.std::basic_ostream"* nonnull align 8 dereferenceable(8) %51)
  ret void

53:                                               ; preds = %8
  %54 = getelementptr inbounds [100 x [100 x i32]], [100 x [100 x i32]]* @a, i64 0, i64 %9, i64 %10
  %55 = load i32, i32* %54, align 4, !tbaa !5
  %56 = tail call nonnull align 8 dereferenceable(8) %"class.std::basic_ostream"* @_ZNSolsEi(%"class.std::basic_ostream"* nonnull align 8 dereferenceable(8) @_ZSt4cout, i32 %55)
  %57 = bitcast %"class.std::basic_ostream"* %56 to i8**
  %58 = load i8*, i8** %57, align 8, !tbaa !9
  %59 = getelementptr i8, i8* %58, i64 -24
  %60 = bitcast i8* %59 to i64*
  %61 = load i64, i64* %60, align 8
  %62 = bitcast %"class.std::basic_ostream"* %56 to i8*
  %63 = add nsw i64 %61, 240
  %64 = getelementptr inbounds i8, i8* %62, i64 %63
  %65 = bitcast i8* %64 to %"class.std::ctype"**
  %66 = load %"class.std::ctype"*, %"class.std::ctype"** %65, align 8, !tbaa !11
  %67 = icmp eq %"class.std::ctype"* %66, null
  br i1 %67, label %68, label %69

68:                                               ; preds = %53
  tail call void @_ZSt16__throw_bad_castv() #7
  unreachable

69:                                               ; preds = %53
  %70 = getelementptr inbounds %"class.std::ctype", %"class.std::ctype"* %66, i64 0, i32 8
  %71 = load i8, i8* %70, align 8, !tbaa !15
  %72 = icmp eq i8 %71, 0
  br i1 %72, label %76, label %73

73:                                               ; preds = %69
  %74 = getelementptr inbounds %"class.std::ctype", %"class.std::ctype"* %66, i64 0, i32 9, i64 10
  %75 = load i8, i8* %74, align 1, !tbaa !17
  br label %82

76:                                               ; preds = %69
  tail call void @_ZNKSt5ctypeIcE13_M_widen_initEv(%"class.std::ctype"* nonnull align 8 dereferenceable(570) %66)
  %77 = bitcast %"class.std::ctype"* %66 to i8 (%"class.std::ctype"*, i8)***
  %78 = load i8 (%"class.std::ctype"*, i8)**, i8 (%"class.std::ctype"*, i8)*** %77, align 8, !tbaa !9
  %79 = getelementptr inbounds i8 (%"class.std::ctype"*, i8)*, i8 (%"class.std::ctype"*, i8)** %78, i64 6
  %80 = load i8 (%"class.std::ctype"*, i8)*, i8 (%"class.std::ctype"*, i8)** %79, align 8
  %81 = tail call signext i8 %80(%"class.std::ctype"* nonnull align 8 dereferenceable(570) %66, i8 signext 10)
  br label %82

82:                                               ; preds = %73, %76
  %83 = phi i8 [ %75, %73 ], [ %81, %76 ]
  %84 = tail call nonnull align 8 dereferenceable(8) %"class.std::basic_ostream"* @_ZNSo3putEc(%"class.std::basic_ostream"* nonnull align 8 dereferenceable(8) %56, i8 signext %83)
  %85 = tail call nonnull align 8 dereferenceable(8) %"class.std::basic_ostream"* @_ZNSo5flushEv(%"class.std::basic_ostream"* nonnull align 8 dereferenceable(8) %84)
  %86 = add nsw i64 %9, 1
  %87 = add nsw i64 %10, -1
  %88 = trunc i64 %87 to i32
  %89 = icmp eq i32 %88, 0
  br i1 %89, label %15, label %8
}

declare nonnull align 8 dereferenceable(8) %"class.std::basic_ostream"* @_ZNSolsEi(%"class.std::basic_ostream"* nonnull align 8 dereferenceable(8), i32) local_unnamed_addr #0

; Function Attrs: mustprogress norecurse sspstrong uwtable
define dso_local i32 @main() local_unnamed_addr #4 {
  %1 = tail call nonnull align 8 dereferenceable(16) %"class.std::basic_istream"* @_ZNSirsERi(%"class.std::basic_istream"* nonnull align 8 dereferenceable(16) @_ZSt3cin, i32* nonnull align 4 dereferenceable(4) @n)
  %2 = tail call nonnull align 8 dereferenceable(16) %"class.std::basic_istream"* @_ZNSirsERi(%"class.std::basic_istream"* nonnull align 8 dereferenceable(16) %1, i32* nonnull align 4 dereferenceable(4) @m)
  store i32 0, i32* @i, align 4, !tbaa !5
  %3 = load i32, i32* @n, align 4, !tbaa !5
  %4 = icmp sgt i32 %3, 0
  %5 = load i32, i32* @m, align 4, !tbaa !5
  br i1 %4, label %6, label %22

6:                                                ; preds = %0
  %7 = icmp sgt i32 %5, 0
  br i1 %7, label %9, label %8

8:                                                ; preds = %6
  store i32 0, i32* @j, align 4, !tbaa !5
  br label %49

9:                                                ; preds = %6, %41
  %10 = phi i32 [ %42, %41 ], [ %3, %6 ]
  %11 = phi i32 [ %45, %41 ], [ 0, %6 ]
  %12 = phi i32 [ %44, %41 ], [ %5, %6 ]
  store i32 0, i32* @j, align 4, !tbaa !5
  %13 = icmp sgt i32 %12, 0
  br i1 %13, label %14, label %41

14:                                               ; preds = %9
  %15 = sext i32 %11 to i64
  %16 = getelementptr inbounds [100 x [100 x i32]], [100 x [100 x i32]]* @a, i64 0, i64 %15, i64 0
  %17 = tail call nonnull align 8 dereferenceable(16) %"class.std::basic_istream"* @_ZNSirsERi(%"class.std::basic_istream"* nonnull align 8 dereferenceable(16) @_ZSt3cin, i32* nonnull align 4 dereferenceable(4) %16)
  %18 = load i32, i32* @j, align 4, !tbaa !5
  %19 = add nsw i32 %18, 1
  store i32 %19, i32* @j, align 4, !tbaa !5
  %20 = load i32, i32* @m, align 4, !tbaa !5
  %21 = icmp slt i32 %19, %20
  br i1 %21, label %26, label %37, !llvm.loop !18

22:                                               ; preds = %41, %0
  %23 = phi i32 [ %3, %0 ], [ %42, %41 ]
  %24 = phi i32 [ %5, %0 ], [ %44, %41 ]
  store i32 0, i32* @i, align 4, !tbaa !5
  %25 = icmp sgt i32 %24, 0
  br i1 %25, label %59, label %49

26:                                               ; preds = %14, %26
  %27 = phi i32 [ %34, %26 ], [ %19, %14 ]
  %28 = load i32, i32* @i, align 4, !tbaa !5
  %29 = sext i32 %28 to i64
  %30 = sext i32 %27 to i64
  %31 = getelementptr inbounds [100 x [100 x i32]], [100 x [100 x i32]]* @a, i64 0, i64 %29, i64 %30
  %32 = tail call nonnull align 8 dereferenceable(16) %"class.std::basic_istream"* @_ZNSirsERi(%"class.std::basic_istream"* nonnull align 8 dereferenceable(16) @_ZSt3cin, i32* nonnull align 4 dereferenceable(4) %31)
  %33 = load i32, i32* @j, align 4, !tbaa !5
  %34 = add nsw i32 %33, 1
  store i32 %34, i32* @j, align 4, !tbaa !5
  %35 = load i32, i32* @m, align 4, !tbaa !5
  %36 = icmp slt i32 %34, %35
  br i1 %36, label %26, label %37, !llvm.loop !18

37:                                               ; preds = %26, %14
  %38 = phi i32 [ %20, %14 ], [ %35, %26 ]
  %39 = load i32, i32* @i, align 4, !tbaa !5
  %40 = load i32, i32* @n, align 4, !tbaa !5
  br label %41

41:                                               ; preds = %37, %9
  %42 = phi i32 [ %40, %37 ], [ %10, %9 ]
  %43 = phi i32 [ %39, %37 ], [ %11, %9 ]
  %44 = phi i32 [ %38, %37 ], [ %12, %9 ]
  %45 = add nsw i32 %43, 1
  store i32 %45, i32* @i, align 4, !tbaa !5
  %46 = icmp slt i32 %45, %42
  br i1 %46, label %9, label %22, !llvm.loop !20

47:                                               ; preds = %59
  %48 = load i32, i32* @n, align 4, !tbaa !5
  br label %49

49:                                               ; preds = %8, %47, %22
  %50 = phi i32 [ %63, %47 ], [ %24, %22 ], [ %5, %8 ]
  %51 = phi i32 [ %48, %47 ], [ %23, %22 ], [ %3, %8 ]
  store i32 1, i32* @i, align 4, !tbaa !5
  %52 = icmp sgt i32 %51, 1
  br i1 %52, label %53, label %73

53:                                               ; preds = %49
  %54 = add nsw i32 %50, -1
  tail call void @_Z6bianliii(i32 1, i32 %54)
  %55 = load i32, i32* @i, align 4, !tbaa !5
  %56 = add nsw i32 %55, 1
  store i32 %56, i32* @i, align 4, !tbaa !5
  %57 = load i32, i32* @n, align 4, !tbaa !5
  %58 = icmp slt i32 %56, %57
  br i1 %58, label %65, label %73, !llvm.loop !22

59:                                               ; preds = %22, %59
  %60 = phi i32 [ %62, %59 ], [ 0, %22 ]
  tail call void @_Z6bianliii(i32 0, i32 %60)
  %61 = load i32, i32* @i, align 4, !tbaa !5
  %62 = add nsw i32 %61, 1
  store i32 %62, i32* @i, align 4, !tbaa !5
  %63 = load i32, i32* @m, align 4, !tbaa !5
  %64 = icmp slt i32 %62, %63
  br i1 %64, label %59, label %47, !llvm.loop !23

65:                                               ; preds = %53, %65
  %66 = phi i32 [ %70, %65 ], [ %56, %53 ]
  %67 = load i32, i32* @m, align 4, !tbaa !5
  %68 = add nsw i32 %67, -1
  tail call void @_Z6bianliii(i32 %66, i32 %68)
  %69 = load i32, i32* @i, align 4, !tbaa !5
  %70 = add nsw i32 %69, 1
  store i32 %70, i32* @i, align 4, !tbaa !5
  %71 = load i32, i32* @n, align 4, !tbaa !5
  %72 = icmp slt i32 %70, %71
  br i1 %72, label %65, label %73, !llvm.loop !22

73:                                               ; preds = %65, %53, %49
  ret i32 0
}

declare nonnull align 8 dereferenceable(16) %"class.std::basic_istream"* @_ZNSirsERi(%"class.std::basic_istream"* nonnull align 8 dereferenceable(16), i32* nonnull align 4 dereferenceable(4)) local_unnamed_addr #0

declare nonnull align 8 dereferenceable(8) %"class.std::basic_ostream"* @_ZNSo3putEc(%"class.std::basic_ostream"* nonnull align 8 dereferenceable(8), i8 signext) local_unnamed_addr #0

declare nonnull align 8 dereferenceable(8) %"class.std::basic_ostream"* @_ZNSo5flushEv(%"class.std::basic_ostream"* nonnull align 8 dereferenceable(8)) local_unnamed_addr #0

; Function Attrs: noreturn
declare void @_ZSt16__throw_bad_castv() local_unnamed_addr #5

declare void @_ZNKSt5ctypeIcE13_M_widen_initEv(%"class.std::ctype"* nonnull align 8 dereferenceable(570)) local_unnamed_addr #0

; Function Attrs: sspstrong uwtable
define internal void @_GLOBAL__sub_I_768.cpp() #6 section ".text.startup" {
  tail call void @_ZNSt8ios_base4InitC1Ev(%"class.std::ios_base::Init"* nonnull align 1 dereferenceable(1) @_ZStL8__ioinit)
  %1 = tail call i32 @__cxa_atexit(void (i8*)* bitcast (void (%"class.std::ios_base::Init"*)* @_ZNSt8ios_base4InitD1Ev to void (i8*)*), i8* getelementptr inbounds (%"class.std::ios_base::Init", %"class.std::ios_base::Init"* @_ZStL8__ioinit, i64 0, i32 0), i8* nonnull @__dso_handle) #8
  ret void
}


!llvm.module.flags = !{!0, !1, !2, !3}
!llvm.ident = !{!4}

!0 = !{i32 1, !"wchar_size", i32 4}
!1 = !{i32 7, !"PIC Level", i32 2}
!2 = !{i32 7, !"PIE Level", i32 2}
!3 = !{i32 7, !"uwtable", i32 1}
!4 = !{!"clang version 13.0.0"}
!5 = !{!6, !6, i64 0}
!6 = !{!"int", !7, i64 0}
!7 = !{!"omnipotent char", !8, i64 0}
!8 = !{!"Simple C++ TBAA"}
!9 = !{!10, !10, i64 0}
!10 = !{!"vtable pointer", !8, i64 0}
!11 = !{!12, !13, i64 240}
!12 = !{!"_ZTSSt9basic_iosIcSt11char_traitsIcEE", !13, i64 216, !7, i64 224, !14, i64 225, !13, i64 232, !13, i64 240, !13, i64 248, !13, i64 256}
!13 = !{!"any pointer", !7, i64 0}
!14 = !{!"bool", !7, i64 0}
!15 = !{!16, !7, i64 56}
!16 = !{!"_ZTSSt5ctypeIcE", !13, i64 16, !14, i64 24, !13, i64 32, !13, i64 40, !13, i64 48, !7, i64 56, !7, i64 57, !7, i64 313, !7, i64 569}
!17 = !{!7, !7, i64 0}
!18 = distinct !{!18, !19}
!19 = !{!"llvm.loop.mustprogress"}
!20 = distinct !{!20, !19, !21}
!21 = !{!"llvm.loop.unswitch.partial.disable"}
!22 = distinct !{!22, !19}
!23 = distinct !{!23, !19}
